target datalayout = "e-m:e-p270:32:32-p271:32:32-p272:64:64-i64:64-i128:128-f80:128-n8:16:32:64-S128"
target triple = "x86_64-pc-linux-gnu"

%struct.AVBSFContext = type { ptr, ptr, ptr, ptr, ptr, %struct.AVRational, %struct.AVRational }
%struct.AVRational = type { i32, i32 }
%struct.H264BSFContext = type { ptr, ptr, i32, i32, i32, i32, i8, i8, i8, i8, i32 }

; Function Attrs: nounwind uwtable
define internal void @h264_mp4toannexb_flush(ptr noundef %0) #0 {
  %2 = alloca ptr, align 8
  %3 = alloca ptr, align 8
  store ptr %0, ptr %2, align 8, !tbaa !4
  call void @llvm.lifetime.start.p0(i64 8, ptr %3) #8
  %4 = load ptr, ptr %2, align 8, !tbaa !4
  %5 = getelementptr inbounds nuw %struct.AVBSFContext, ptr %4, i32 0, i32 2
  %6 = load ptr, ptr %5, align 8, !tbaa !27
  store ptr %6, ptr %3, align 8, !tbaa !28
  %7 = load ptr, ptr %3, align 8, !tbaa !28
  %8 = getelementptr inbounds nuw %struct.H264BSFContext, ptr %7, i32 0, i32 8
  store i8 0, ptr %8, align 2, !tbaa !40
  %9 = load ptr, ptr %3, align 8, !tbaa !28
  %10 = getelementptr inbounds nuw %struct.H264BSFContext, ptr %9, i32 0, i32 9
  store i8 0, ptr %10, align 1, !tbaa !41
  %11 = load ptr, ptr %3, align 8, !tbaa !28
  %12 = getelementptr inbounds nuw %struct.H264BSFContext, ptr %11, i32 0, i32 10
  %13 = load i32, ptr %12, align 4, !tbaa !35
  %14 = trunc i32 %13 to i8
  %15 = load ptr, ptr %3, align 8, !tbaa !28
  %16 = getelementptr inbounds nuw %struct.H264BSFContext, ptr %15, i32 0, i32 7
  store i8 %14, ptr %16, align 1, !tbaa !39
  call void @llvm.lifetime.end.p0(i64 8, ptr %3) #8
  ret void
}