; Function Attrs: mustprogress nofree norecurse nosync nounwind willreturn memory(readwrite, inaccessiblemem: none) uwtable
define internal void @h264_mp4toannexb_flush(ptr noundef readonly captures(none) %0) #1 {
  %2 = getelementptr inbounds nuw i8, ptr %0, i64 16
  %3 = load ptr, ptr %2, align 8, !tbaa !22
  %4 = getelementptr inbounds nuw i8, ptr %3, i64 34
  store i8 0, ptr %4, align 2, !tbaa !42
  %5 = getelementptr inbounds nuw i8, ptr %3, i64 35
  store i8 0, ptr %5, align 1, !tbaa !43
  %6 = getelementptr inbounds nuw i8, ptr %3, i64 36
  %7 = load i32, ptr %6, align 4, !tbaa !29
  %8 = trunc i32 %7 to i8
  %9 = getelementptr inbounds nuw i8, ptr %3, i64 33
  store i8 %8, ptr %9, align 1, !tbaa !41
  ret void
}